; Function Attrs: mustprogress nounwind uwtable
define dso_local void @_ZN4llvm12SelectionDAG9viewGraphEv(ptr nocapture noundef nonnull readnone align 8 dereferenceable(904) %0) local_unnamed_addr #0 align 2 {
  %2 = alloca %"class.std::__cxx11::basic_string", align 8
  %3 = alloca %"class.std::allocator", align 1
  call void @_ZNSaIcEC1Ev(ptr noundef nonnull align 1 dereferenceable(1) %3) #7
  %4 = call noundef ptr @_ZNSt7__cxx1112basic_stringIcSt11char_traitsIcESaIcEE13_M_local_dataEv(ptr noundef nonnull align 8 dereferenceable(32) %2) #7
  call void @_ZNSt7__cxx1112basic_stringIcSt11char_traitsIcESaIcEE12_Alloc_hiderC1EPcRKS3_(ptr noundef nonnull align 8 dereferenceable(8) %2, ptr noundef %4, ptr noundef nonnull align 1 dereferenceable(1) %3) #7
  call void @_ZNSt7__cxx1112basic_stringIcSt11char_traitsIcESaIcEE12_M_constructIPKcEEvT_S8_St20forward_iterator_tag(ptr noundef nonnull align 8 dereferenceable(32) %2, ptr noundef nonnull @.str.2, ptr noundef nonnull @.str.2)
  %5 = call noundef nonnull align 8 dereferenceable(96) ptr @_ZN4llvm4errsEv() #7
  %6 = getelementptr inbounds nuw i8, ptr %5, i64 24
  %7 = load ptr, ptr %6, align 8
  %8 = getelementptr inbounds nuw i8, ptr %5, i64 32
  %9 = load ptr, ptr %8, align 8
  %10 = ptrtoint ptr %7 to i64
  %11 = ptrtoint ptr %9 to i64
  %12 = sub i64 %10, %11
  %13 = icmp ult i64 %12, 61
  br i1 %13, label %14, label %16

14:                                               ; preds = %1
  %15 = call noundef nonnull align 8 dereferenceable(48) ptr @_ZN4llvm11raw_ostream5writeEPKcm(ptr noundef nonnull align 8 dereferenceable(48) %5, ptr noundef nonnull @.str, i64 noundef 61) #7
  %.phi.trans.insert.i = getelementptr inbounds nuw i8, ptr %15, i64 32
  %.pre.i = load ptr, ptr %.phi.trans.insert.i, align 8
  br label %_ZN4llvm11raw_ostreamlsEPKc.exit.i

16:                                               ; preds = %1
  call void @llvm.memcpy.p0.p0.i64(ptr noundef nonnull align 1 dereferenceable(61) %9, ptr noundef nonnull align 1 dereferenceable(61) @.str, i64 61, i1 false)
  %17 = load ptr, ptr %8, align 8
  %18 = getelementptr inbounds i8, ptr %17, i64 61
  store ptr %18, ptr %8, align 8
  br label %_ZN4llvm11raw_ostreamlsEPKc.exit.i

_ZN4llvm11raw_ostreamlsEPKc.exit.i:               ; preds = %16, %14
  %19 = phi ptr [ %.pre.i, %14 ], [ %18, %16 ]
  %.0.i.i.i = phi ptr [ %15, %14 ], [ %5, %16 ]
  %20 = getelementptr inbounds nuw i8, ptr %.0.i.i.i, i64 24
  %21 = load ptr, ptr %20, align 8
  %22 = ptrtoint ptr %21 to i64
  %23 = ptrtoint ptr %19 to i64
  %24 = sub i64 %22, %23
  %25 = icmp ult i64 %24, 29
  br i1 %25, label %26, label %28

26:                                               ; preds = %_ZN4llvm11raw_ostreamlsEPKc.exit.i
  %27 = call noundef nonnull align 8 dereferenceable(48) ptr @_ZN4llvm11raw_ostream5writeEPKcm(ptr noundef nonnull align 8 dereferenceable(48) %.0.i.i.i, ptr noundef nonnull @.str.1, i64 noundef 29) #7
  br label %_ZN4llvm12SelectionDAG9viewGraphERKNSt7__cxx1112basic_stringIcSt11char_traitsIcESaIcEEE.exit

28:                                               ; preds = %_ZN4llvm11raw_ostreamlsEPKc.exit.i
  %29 = getelementptr inbounds nuw i8, ptr %.0.i.i.i, i64 32
  call void @llvm.memcpy.p0.p0.i64(ptr noundef nonnull align 1 dereferenceable(29) %19, ptr noundef nonnull align 1 dereferenceable(29) @.str.1, i64 29, i1 false)
  %30 = load ptr, ptr %29, align 8
  %31 = getelementptr inbounds i8, ptr %30, i64 29
  store ptr %31, ptr %29, align 8
  br label %_ZN4llvm12SelectionDAG9viewGraphERKNSt7__cxx1112basic_stringIcSt11char_traitsIcESaIcEEE.exit

_ZN4llvm12SelectionDAG9viewGraphERKNSt7__cxx1112basic_stringIcSt11char_traitsIcESaIcEEE.exit: ; preds = %26, %28
  call void @_ZNSt7__cxx1112basic_stringIcSt11char_traitsIcESaIcEED1Ev(ptr noundef nonnull align 8 dereferenceable(32) %2) #7
  call void @_ZNSaIcED1Ev(ptr noundef nonnull align 1 dereferenceable(1) %3) #7
  ret void
}